; ModuleID = 'source-C-CXX/33/81.c'
source_filename = "source-C-CXX/33/81.c"
target datalayout = "e-m:e-p270:32:32-p271:32:32-p272:64:64-i64:64-f80:128-n8:16:32:64-S128"
target triple = "x86_64-pc-linux-gnu"

@.str = private unnamed_addr constant [3 x i8] c"%d\00", align 1
@.str.1 = private unnamed_addr constant [4 x i8] c"End\00", align 1
@.str.2 = private unnamed_addr constant [10 x i8] c"2/2=1\0AEnd\00", align 1
@.str.3 = private unnamed_addr constant [9 x i8] c"%d/2=%d\0A\00", align 1
@.str.4 = private unnamed_addr constant [11 x i8] c"%d*3+1=%d\0A\00", align 1

; Function Attrs: nofree nounwind sspstrong uwtable
define dso_local i32 @main() local_unnamed_addr #0 {
  %1 = alloca i32, align 4
  %2 = bitcast i32* %1 to i8*
  call void @llvm.lifetime.start.p0i8(i64 4, i8* nonnull %2) #3
  %3 = call i32 (i8*, ...) @__isoc99_scanf(i8* getelementptr inbounds ([3 x i8], [3 x i8]* @.str, i64 0, i64 0), i32* nonnull %1)
  %4 = load i32, i32* %1, align 4, !tbaa !5
  switch i32 %4, label %6 [
    i32 1, label %38
    i32 2, label %5
  ]

5:                                                ; preds = %0
  br label %38

6:                                                ; preds = %0, %35
  %7 = phi i32 [ %36, %35 ], [ %4, %0 ]
  %8 = and i32 %7, 1
  %9 = icmp eq i32 %8, 0
  br i1 %9, label %10, label %22

10:                                               ; preds = %6
  %11 = sdiv i32 %7, 2
  %12 = call i32 (i8*, ...) @printf(i8* nonnull dereferenceable(1) getelementptr inbounds ([9 x i8], [9 x i8]* @.str.3, i64 0, i64 0), i32 %7, i32 %11)
  %13 = load i32, i32* %1, align 4, !tbaa !5
  %14 = and i32 %13, 1
  %15 = icmp eq i32 %14, 0
  br i1 %15, label %16, label %18

16:                                               ; preds = %10
  %17 = sdiv i32 %13, 2
  store i32 %17, i32* %1, align 4, !tbaa !5
  br label %35

18:                                               ; preds = %10
  %19 = mul nsw i32 %13, 3
  %20 = sdiv i32 %19, 2
  %21 = add nsw i32 %20, 1
  store i32 %21, i32* %1, align 4, !tbaa !5
  br label %35

22:                                               ; preds = %6
  %23 = mul nsw i32 %7, 3
  %24 = add nsw i32 %23, 1
  %25 = call i32 (i8*, ...) @printf(i8* nonnull dereferenceable(1) getelementptr inbounds ([11 x i8], [11 x i8]* @.str.4, i64 0, i64 0), i32 %7, i32 %24)
  %26 = load i32, i32* %1, align 4, !tbaa !5
  %27 = mul nsw i32 %26, 3
  %28 = add nsw i32 %27, 1
  %29 = and i32 %28, 1
  %30 = icmp eq i32 %29, 0
  br i1 %30, label %31, label %32

31:                                               ; preds = %22
  store i32 %28, i32* %1, align 4, !tbaa !5
  br label %35

32:                                               ; preds = %22
  %33 = mul nsw i32 %28, 3
  %34 = add nsw i32 %33, 1
  store i32 %34, i32* %1, align 4, !tbaa !5
  br label %35

35:                                               ; preds = %31, %32, %16, %18
  %36 = phi i32 [ %28, %31 ], [ %34, %32 ], [ %17, %16 ], [ %21, %18 ]
  %37 = icmp eq i32 %36, 1
  br i1 %37, label %38, label %6, !llvm.loop !9

38:                                               ; preds = %35, %0, %5
  %39 = phi i8* [ getelementptr inbounds ([10 x i8], [10 x i8]* @.str.2, i64 0, i64 0), %5 ], [ getelementptr inbounds ([4 x i8], [4 x i8]* @.str.1, i64 0, i64 0), %0 ], [ getelementptr inbounds ([4 x i8], [4 x i8]* @.str.1, i64 0, i64 0), %35 ]
  %40 = call i32 (i8*, ...) @printf(i8* nonnull dereferenceable(1) %39)
  call void @llvm.lifetime.end.p0i8(i64 4, i8* nonnull %2) #3
  ret i32 0
}

; Function Attrs: argmemonly mustprogress nofree nosync nounwind willreturn
declare void @llvm.lifetime.start.p0i8(i64 immarg, i8* nocapture) #1

; Function Attrs: nofree nounwind
declare noundef i32 @__isoc99_scanf(i8* nocapture noundef readonly, ...) local_unnamed_addr #2

; Function Attrs: nofree nounwind
declare noundef i32 @printf(i8* nocapture noundef readonly, ...) local_unnamed_addr #2

; Function Attrs: argmemonly mustprogress nofree nosync nounwind willreturn
declare void @llvm.lifetime.end.p0i8(i64 immarg, i8* nocapture) #1


!llvm.module.flags = !{!0, !1, !2, !3}
!llvm.ident = !{!4}

!0 = !{i32 1, !"wchar_size", i32 4}
!1 = !{i32 7, !"PIC Level", i32 2}
!2 = !{i32 7, !"PIE Level", i32 2}
!3 = !{i32 7, !"uwtable", i32 1}
!4 = !{!"clang version 13.0.0"}
!5 = !{!6, !6, i64 0}
!6 = !{!"int", !7, i64 0}
!7 = !{!"omnipotent char", !8, i64 0}
!8 = !{!"Simple C/C++ TBAA"}
!9 = distinct !{!9, !10}
!10 = !{!"llvm.loop.mustprogress"}
